target datalayout = "e-m:e-p270:32:32-p271:32:32-p272:64:64-i64:64-i128:128-f80:128-n8:16:32:64-S128"
target triple = "x86_64-pc-linux-gnu"

@hf_fcs_mgmtaddr = internal global i32 0, align 4
@hf_fcs_platformname_len = internal global i32 0, align 4
@hf_fcs_platformname = internal global i32 0, align 4
@hf_fcs_platformnname = internal global i32 0, align 4
@hf_fcs_platformtype = internal global i32 0, align 4
@hf_fcfcs_num_platform_node_name_entries = internal global i32 0, align 4
@hf_fcfcs_num_mgmt_address_entries = internal global i32 0, align 4

; Function Attrs: nounwind uwtable
define internal void @dissect_fcfcs_rpl(ptr noundef %0, ptr noundef %1, i32 noundef %2) #0 {
  %4 = alloca ptr, align 8
  %5 = alloca ptr, align 8
  %6 = alloca i32, align 4
  %7 = alloca i32, align 4
  %8 = alloca i32, align 4
  %9 = alloca i32, align 4
  %10 = alloca i32, align 4
  store ptr %0, ptr %4, align 8
  store ptr %1, ptr %5, align 8
  store i32 %2, ptr %6, align 4
  store i32 16, ptr %7, align 4
  %11 = load ptr, ptr %5, align 8
  %12 = icmp ne ptr %11, null
  br i1 %12, label %13, label %88

13:                                               ; preds = %3
  %14 = load i32, ptr %6, align 4
  %15 = icmp ne i32 %14, 0
  br i1 %15, label %16, label %87

16:                                               ; preds = %13
  %17 = load ptr, ptr %4, align 8
  %18 = load i32, ptr %7, align 4
  %19 = call zeroext i8 @tvb_get_guint8(ptr noundef %17, i32 noundef %18)
  %20 = zext i8 %19 to i32
  store i32 %20, ptr %10, align 4
  %21 = load ptr, ptr %5, align 8
  %22 = load i32, ptr @hf_fcs_platformname_len, align 4
  %23 = load ptr, ptr %4, align 8
  %24 = load i32, ptr %7, align 4
  %25 = load i32, ptr %10, align 4
  %26 = call ptr @proto_tree_add_uint(ptr noundef %21, i32 noundef %22, ptr noundef %23, i32 noundef %24, i32 noundef 1, i32 noundef %25)
  %27 = load ptr, ptr %5, align 8
  %28 = load i32, ptr @hf_fcs_platformname, align 4
  %29 = load ptr, ptr %4, align 8
  %30 = load i32, ptr %7, align 4
  %31 = add i32 %30, 1
  %32 = load i32, ptr %10, align 4
  %33 = call ptr @proto_tree_add_item(ptr noundef %27, i32 noundef %28, ptr noundef %29, i32 noundef %31, i32 noundef %32, i32 noundef 0)
  %34 = load ptr, ptr %5, align 8
  %35 = load i32, ptr @hf_fcs_platformtype, align 4
  %36 = load ptr, ptr %4, align 8
  %37 = load i32, ptr %7, align 4
  %38 = add i32 %37, 256
  %39 = call ptr @proto_tree_add_item(ptr noundef %34, i32 noundef %35, ptr noundef %36, i32 noundef %38, i32 noundef 4, i32 noundef 0)
  %40 = load ptr, ptr %5, align 8
  %41 = load i32, ptr @hf_fcfcs_num_mgmt_address_entries, align 4
  %42 = load ptr, ptr %4, align 8
  %43 = load i32, ptr %7, align 4
  %44 = add i32 %43, 260
  %45 = call ptr @proto_tree_add_item_ret_uint(ptr noundef %40, i32 noundef %41, ptr noundef %42, i32 noundef %44, i32 noundef 4, i32 noundef 0, ptr noundef %8)
  %46 = load i32, ptr %7, align 4
  %47 = add i32 %46, 264
  store i32 %47, ptr %7, align 4
  store i32 0, ptr %9, align 4
  br label %48

48:                                               ; preds = %60, %16
  %49 = load i32, ptr %9, align 4
  %50 = load i32, ptr %8, align 4
  %51 = icmp ult i32 %49, %50
  br i1 %51, label %52, label %63

52:                                               ; preds = %48
  %53 = load ptr, ptr %5, align 8
  %54 = load i32, ptr @hf_fcs_mgmtaddr, align 4
  %55 = load ptr, ptr %4, align 8
  %56 = load i32, ptr %7, align 4
  %57 = call ptr @proto_tree_add_item(ptr noundef %53, i32 noundef %54, ptr noundef %55, i32 noundef %56, i32 noundef 1, i32 noundef 0)
  %58 = load i32, ptr %7, align 4
  %59 = add i32 %58, 256
  store i32 %59, ptr %7, align 4
  br label %60

60:                                               ; preds = %52
  %61 = load i32, ptr %9, align 4
  %62 = add i32 %61, 1
  store i32 %62, ptr %9, align 4
  br label %48, !llvm.loop !13

63:                                               ; preds = %48
  %64 = load ptr, ptr %5, align 8
  %65 = load i32, ptr @hf_fcfcs_num_platform_node_name_entries, align 4
  %66 = load ptr, ptr %4, align 8
  %67 = load i32, ptr %7, align 4
  %68 = call ptr @proto_tree_add_item_ret_uint(ptr noundef %64, i32 noundef %65, ptr noundef %66, i32 noundef %67, i32 noundef 4, i32 noundef 0, ptr noundef %8)
  %69 = load i32, ptr %7, align 4
  %70 = add i32 %69, 4
  store i32 %70, ptr %7, align 4
  store i32 0, ptr %9, align 4
  br label %71

71:                                               ; preds = %83, %63
  %72 = load i32, ptr %9, align 4
  %73 = load i32, ptr %8, align 4
  %74 = icmp ult i32 %72, %73
  br i1 %74, label %75, label %86

75:                                               ; preds = %71
  %76 = load ptr, ptr %5, align 8
  %77 = load i32, ptr @hf_fcs_platformnname, align 4
  %78 = load ptr, ptr %4, align 8
  %79 = load i32, ptr %7, align 4
  %80 = call ptr @proto_tree_add_item(ptr noundef %76, i32 noundef %77, ptr noundef %78, i32 noundef %79, i32 noundef 8, i32 noundef 0)
  %81 = load i32, ptr %7, align 4
  %82 = add i32 %81, 8
  store i32 %82, ptr %7, align 4
  br label %83

83:                                               ; preds = %75
  %84 = load i32, ptr %9, align 4
  %85 = add i32 %84, 1
  store i32 %85, ptr %9, align 4
  br label %71, !llvm.loop !14

86:                                               ; preds = %71
  br label %87

87:                                               ; preds = %86, %13
  br label %88

88:                                               ; preds = %87, %3
  ret void
}