; Function Attrs: nounwind uwtable
define internal fastcc void @dissect_fcfcs_rpl(ptr noundef %0, ptr noundef %1, i32 noundef range(i32 0, 2) %2) unnamed_addr #0 {
  %4 = alloca i32, align 4
  %5 = icmp ne ptr %1, null
  %6 = icmp ne i32 %2, 0
  %or.cond = and i1 %5, %6
  br i1 %or.cond, label %7, label %.loopexit

7:                                                ; preds = %3
  %8 = tail call zeroext i8 @tvb_get_guint8(ptr noundef %0, i32 noundef 16) #4
  %9 = zext i8 %8 to i32
  %10 = load i32, ptr @hf_fcs_platformname_len, align 4
  %11 = tail call ptr @proto_tree_add_uint(ptr noundef nonnull %1, i32 noundef %10, ptr noundef %0, i32 noundef 16, i32 noundef 1, i32 noundef %9) #4
  %12 = load i32, ptr @hf_fcs_platformname, align 4
  %13 = tail call ptr @proto_tree_add_item(ptr noundef nonnull %1, i32 noundef %12, ptr noundef %0, i32 noundef 17, i32 noundef %9, i32 noundef 0) #4
  %14 = load i32, ptr @hf_fcs_platformtype, align 4
  %15 = tail call ptr @proto_tree_add_item(ptr noundef nonnull %1, i32 noundef %14, ptr noundef %0, i32 noundef 272, i32 noundef 4, i32 noundef 0) #4
  %16 = load i32, ptr @hf_fcfcs_num_mgmt_address_entries, align 4
  %17 = call ptr @proto_tree_add_item_ret_uint(ptr noundef nonnull %1, i32 noundef %16, ptr noundef %0, i32 noundef 276, i32 noundef 4, i32 noundef 0, ptr noundef nonnull %4) #4
  %18 = load i32, ptr %4, align 4
  %.not = icmp eq i32 %18, 0
  br i1 %.not, label %._crit_edge, label %.lr.ph

.lr.ph:                                           ; preds = %7, %.lr.ph
  %.039 = phi i32 [ %21, %.lr.ph ], [ 280, %7 ]
  %.03538 = phi i32 [ %22, %.lr.ph ], [ 0, %7 ]
  %19 = load i32, ptr @hf_fcs_mgmtaddr, align 4
  %20 = call ptr @proto_tree_add_item(ptr noundef nonnull %1, i32 noundef %19, ptr noundef %0, i32 noundef %.039, i32 noundef 1, i32 noundef 0) #4
  %21 = add i32 %.039, 256
  %22 = add nuw i32 %.03538, 1
  %23 = load i32, ptr %4, align 4
  %24 = icmp ult i32 %22, %23
  br i1 %24, label %.lr.ph, label %._crit_edge, !llvm.loop !13

._crit_edge:                                      ; preds = %.lr.ph, %7
  %.0.lcssa = phi i32 [ 280, %7 ], [ %21, %.lr.ph ]
  %25 = load i32, ptr @hf_fcfcs_num_platform_node_name_entries, align 4
  %26 = call ptr @proto_tree_add_item_ret_uint(ptr noundef nonnull %1, i32 noundef %25, ptr noundef %0, i32 noundef %.0.lcssa, i32 noundef 4, i32 noundef 0, ptr noundef nonnull %4) #4
  %27 = load i32, ptr %4, align 4
  %.not44 = icmp eq i32 %27, 0
  br i1 %.not44, label %.loopexit, label %.lr.ph43.preheader

.lr.ph43.preheader:                               ; preds = %._crit_edge
  %28 = or disjoint i32 %.0.lcssa, 4
  br label %.lr.ph43

.lr.ph43:                                         ; preds = %.lr.ph43.preheader, %.lr.ph43
  %.141 = phi i32 [ %31, %.lr.ph43 ], [ %28, %.lr.ph43.preheader ]
  %.13640 = phi i32 [ %32, %.lr.ph43 ], [ 0, %.lr.ph43.preheader ]
  %29 = load i32, ptr @hf_fcs_platformnname, align 4
  %30 = call ptr @proto_tree_add_item(ptr noundef nonnull %1, i32 noundef %29, ptr noundef %0, i32 noundef %.141, i32 noundef 8, i32 noundef 0) #4
  %31 = add i32 %.141, 8
  %32 = add nuw i32 %.13640, 1
  %33 = load i32, ptr %4, align 4
  %34 = icmp ult i32 %32, %33
  br i1 %34, label %.lr.ph43, label %.loopexit, !llvm.loop !14

.loopexit:                                        ; preds = %.lr.ph43, %._crit_edge, %3
  ret void
}